target datalayout = "e-m:e-p270:32:32-p271:32:32-p272:64:64-i64:64-i128:128-f80:128-n8:16:32:64-S128"
target triple = "x86_64-pc-linux-gnu"

%"class.std::__cxx11::basic_string" = type { %"struct.std::__cxx11::basic_string<char>::_Alloc_hider", i64, %union.anon }
%"struct.std::__cxx11::basic_string<char>::_Alloc_hider" = type { ptr }
%union.anon = type { i64, [8 x i8] }
%"class.google::protobuf::DescriptorDatabase" = type { ptr }
%"class.google::protobuf::stringpiece_internal::StringPiece" = type { ptr, i64 }
%"struct.std::pair" = type <{ ptr, i32, [4 x i8] }>
%"class.google::protobuf::EncodedDescriptorDatabase" = type { %"class.google::protobuf::DescriptorDatabase", %"class.std::unique_ptr", %"class.std::vector.20" }
%"class.std::unique_ptr" = type { %"struct.std::__uniq_ptr_data" }
%"struct.std::__uniq_ptr_data" = type { %"class.std::__uniq_ptr_impl" }
%"class.std::__uniq_ptr_impl" = type { %"class.std::tuple" }
%"class.std::tuple" = type { %"struct.std::_Tuple_impl" }
%"struct.std::_Tuple_impl" = type { %"struct.std::_Head_base.19" }
%"struct.std::_Head_base.19" = type { ptr }
%"class.std::vector.20" = type { %"struct.std::_Vector_base.21" }
%"struct.std::_Vector_base.21" = type { %"struct.std::_Vector_base<void *, std::allocator<void *>>::_Vector_impl" }
%"struct.std::_Vector_base<void *, std::allocator<void *>>::_Vector_impl" = type { %"struct.std::_Vector_base<void *, std::allocator<void *>>::_Vector_impl_data" }
%"struct.std::_Vector_base<void *, std::allocator<void *>>::_Vector_impl_data" = type { ptr, ptr, ptr }

; Function Attrs: mustprogress nounwind uwtable
define linkonce_odr hidden noundef nonnull align 8 dereferenceable(8) ptr @_ZNSt10_Head_baseILm0EPN6google8protobuf25EncodedDescriptorDatabase15DescriptorIndexELb0EE7_M_headERKS5_(ptr noundef nonnull align 8 dereferenceable(8) %0) #4 comdat align 2 {
  %2 = alloca ptr, align 8
  store ptr %0, ptr %2, align 8, !tbaa !723
  %3 = load ptr, ptr %2, align 8, !tbaa !723
  %4 = getelementptr inbounds nuw %"struct.std::_Head_base.19", ptr %3, i32 0, i32 0
  ret ptr %4
}

; Function Attrs: mustprogress nounwind uwtable
define linkonce_odr hidden noundef nonnull align 8 dereferenceable(8) ptr @_ZNSt11_Tuple_implILm0EJPN6google8protobuf25EncodedDescriptorDatabase15DescriptorIndexESt14default_deleteIS3_EEE7_M_headERKS7_(ptr noundef nonnull align 8 dereferenceable(8) %0) #4 comdat align 2 {
  %2 = alloca ptr, align 8
  store ptr %0, ptr %2, align 8, !tbaa !721
  %3 = load ptr, ptr %2, align 8, !tbaa !721
  %4 = call noundef nonnull align 8 dereferenceable(8) ptr @_ZNSt10_Head_baseILm0EPN6google8protobuf25EncodedDescriptorDatabase15DescriptorIndexELb0EE7_M_headERKS5_(ptr noundef nonnull align 8 dereferenceable(8) %3) #3
  ret ptr %4
}

; Function Attrs: mustprogress nounwind uwtable
define linkonce_odr hidden noundef nonnull align 8 dereferenceable(8) ptr @_ZSt12__get_helperILm0EPN6google8protobuf25EncodedDescriptorDatabase15DescriptorIndexEJSt14default_deleteIS3_EEERKT0_RKSt11_Tuple_implIXT_EJS7_DpT1_EE(ptr noundef nonnull align 8 dereferenceable(8) %0) #4 comdat {
  %2 = alloca ptr, align 8
  store ptr %0, ptr %2, align 8, !tbaa !721
  %3 = load ptr, ptr %2, align 8, !tbaa !721
  %4 = call noundef nonnull align 8 dereferenceable(8) ptr @_ZNSt11_Tuple_implILm0EJPN6google8protobuf25EncodedDescriptorDatabase15DescriptorIndexESt14default_deleteIS3_EEE7_M_headERKS7_(ptr noundef nonnull align 8 dereferenceable(8) %3) #3
  ret ptr %4
}

; Function Attrs: mustprogress nounwind uwtable
define linkonce_odr hidden noundef nonnull align 8 dereferenceable(8) ptr @_ZSt3getILm0EJPN6google8protobuf25EncodedDescriptorDatabase15DescriptorIndexESt14default_deleteIS3_EEERKNSt13tuple_elementIXT_ESt5tupleIJDpT0_EEE4typeERKSB_(ptr noundef nonnull align 8 dereferenceable(8) %0) #4 comdat {
  %2 = alloca ptr, align 8
  store ptr %0, ptr %2, align 8, !tbaa !719
  %3 = load ptr, ptr %2, align 8, !tbaa !719
  %4 = call noundef nonnull align 8 dereferenceable(8) ptr @_ZSt12__get_helperILm0EPN6google8protobuf25EncodedDescriptorDatabase15DescriptorIndexEJSt14default_deleteIS3_EEERKT0_RKSt11_Tuple_implIXT_EJS7_DpT1_EE(ptr noundef nonnull align 8 dereferenceable(8) %3) #3
  ret ptr %4
}

; Function Attrs: mustprogress nounwind uwtable
define available_externally noundef ptr @_ZNKSt7__cxx1112basic_stringIcSt11char_traitsIcESaIcEE7_M_dataEv(ptr noundef nonnull align 8 dereferenceable(32) %0) #4 align 2 {
  %2 = alloca ptr, align 8
  store ptr %0, ptr %2, align 8, !tbaa !12
  %3 = load ptr, ptr %2, align 8
  %4 = getelementptr inbounds nuw %"class.std::__cxx11::basic_string", ptr %3, i32 0, i32 0
  %5 = getelementptr inbounds nuw %"struct.std::__cxx11::basic_string<char>::_Alloc_hider", ptr %4, i32 0, i32 0
  %6 = load ptr, ptr %5, align 8, !tbaa !361
  ret ptr %6
}

; Function Attrs: mustprogress nounwind uwtable
define linkonce_odr hidden noundef ptr @_ZNKSt15__uniq_ptr_implIN6google8protobuf25EncodedDescriptorDatabase15DescriptorIndexESt14default_deleteIS3_EE6_M_ptrEv(ptr noundef nonnull align 8 dereferenceable(8) %0) #4 comdat align 2 {
  %2 = alloca ptr, align 8
  store ptr %0, ptr %2, align 8, !tbaa !717
  %3 = load ptr, ptr %2, align 8
  %4 = getelementptr inbounds nuw %"class.std::__uniq_ptr_impl", ptr %3, i32 0, i32 0
  %5 = call noundef nonnull align 8 dereferenceable(8) ptr @_ZSt3getILm0EJPN6google8protobuf25EncodedDescriptorDatabase15DescriptorIndexESt14default_deleteIS3_EEERKNSt13tuple_elementIXT_ESt5tupleIJDpT0_EEE4typeERKSB_(ptr noundef nonnull align 8 dereferenceable(8) %4) #3
  %6 = load ptr, ptr %5, align 8, !tbaa !59
  ret ptr %6
}

; Function Attrs: mustprogress nounwind uwtable
define linkonce_odr hidden noundef i64 @_ZN6google8protobuf20stringpiece_internal11StringPiece9CheckSizeEm(i64 noundef %0) #4 comdat align 2 {
  %2 = alloca i64, align 8
  store i64 %0, ptr %2, align 8, !tbaa !95
  %3 = load i64, ptr %2, align 8, !tbaa !95
  ret i64 %3
}

; Function Attrs: mustprogress nounwind uwtable
define available_externally noundef i64 @_ZNKSt7__cxx1112basic_stringIcSt11char_traitsIcESaIcEE4sizeEv(ptr noundef nonnull align 8 dereferenceable(32) %0) #4 align 2 {
  %2 = alloca ptr, align 8
  store ptr %0, ptr %2, align 8, !tbaa !12
  %3 = load ptr, ptr %2, align 8
  %4 = getelementptr inbounds nuw %"class.std::__cxx11::basic_string", ptr %3, i32 0, i32 1
  %5 = load i64, ptr %4, align 8, !tbaa !366
  ret i64 %5
}

; Function Attrs: mustprogress nounwind uwtable
define available_externally noundef ptr @_ZNKSt7__cxx1112basic_stringIcSt11char_traitsIcESaIcEE4dataEv(ptr noundef nonnull align 8 dereferenceable(32) %0) #4 align 2 {
  %2 = alloca ptr, align 8
  store ptr %0, ptr %2, align 8, !tbaa !12
  %3 = load ptr, ptr %2, align 8
  %4 = call noundef ptr @_ZNKSt7__cxx1112basic_stringIcSt11char_traitsIcESaIcEE7_M_dataEv(ptr noundef nonnull align 8 dereferenceable(32) %3)
  ret ptr %4
}

; Function Attrs: mustprogress nounwind uwtable
define linkonce_odr hidden noundef ptr @_ZNKSt10unique_ptrIN6google8protobuf25EncodedDescriptorDatabase15DescriptorIndexESt14default_deleteIS3_EE3getEv(ptr noundef nonnull align 8 dereferenceable(8) %0) #4 comdat align 2 {
  %2 = alloca ptr, align 8
  store ptr %0, ptr %2, align 8, !tbaa !57
  %3 = load ptr, ptr %2, align 8
  %4 = getelementptr inbounds nuw %"class.std::unique_ptr", ptr %3, i32 0, i32 0
  %5 = call noundef ptr @_ZNKSt15__uniq_ptr_implIN6google8protobuf25EncodedDescriptorDatabase15DescriptorIndexESt14default_deleteIS3_EE6_M_ptrEv(ptr noundef nonnull align 8 dereferenceable(8) %4) #3
  ret ptr %5
}

; Function Attrs: mustprogress uwtable
define hidden noundef zeroext i1 @_ZN6google8protobuf25EncodedDescriptorDatabase10MaybeParseESt4pairIPKviEPNS0_19FileDescriptorProtoE(ptr noundef nonnull align 8 dereferenceable(40) %0, ptr %1, i32 %2, ptr noundef %3) #6 align 2 {
  %5 = alloca i1, align 1
  %6 = alloca %"struct.std::pair", align 8
  %7 = alloca ptr, align 8
  %8 = alloca ptr, align 8
  %9 = getelementptr inbounds nuw { ptr, i32 }, ptr %6, i32 0, i32 0
  store ptr %1, ptr %9, align 8
  %10 = getelementptr inbounds nuw { ptr, i32 }, ptr %6, i32 0, i32 1
  store i32 %2, ptr %10, align 8
  store ptr %0, ptr %7, align 8, !tbaa !54
  store ptr %3, ptr %8, align 8, !tbaa !24
  %11 = getelementptr inbounds nuw %"struct.std::pair", ptr %6, i32 0, i32 0
  %12 = load ptr, ptr %11, align 8, !tbaa !61
  %13 = icmp eq ptr %12, null
  br i1 %13, label %14, label %15

14:                                               ; preds = %4
  store i1 false, ptr %5, align 1
  br label %22

15:                                               ; preds = %4
  %16 = load ptr, ptr %8, align 8, !tbaa !24
  %17 = getelementptr inbounds nuw %"struct.std::pair", ptr %6, i32 0, i32 0
  %18 = load ptr, ptr %17, align 8, !tbaa !61
  %19 = getelementptr inbounds nuw %"struct.std::pair", ptr %6, i32 0, i32 1
  %20 = load i32, ptr %19, align 8, !tbaa !65
  %21 = call noundef zeroext i1 @_ZN6google8protobuf11MessageLite14ParseFromArrayEPKvi(ptr noundef nonnull align 8 dereferenceable(16) %16, ptr noundef %18, i32 noundef %20)
  store i1 %21, ptr %5, align 1
  br label %22

22:                                               ; preds = %15, %14
  %23 = load i1, ptr %5, align 1
  ret i1 %23
}

; Function Attrs: mustprogress uwtable
define linkonce_odr hidden void @_ZN6google8protobuf20stringpiece_internal11StringPieceC2ISaIcEEERKNSt7__cxx1112basic_stringIcSt11char_traitsIcET_EE(ptr noundef nonnull align 8 dereferenceable(16) %0, ptr noundef nonnull align 8 dereferenceable(32) %1) unnamed_addr #6 comdat align 2 {
  %3 = alloca ptr, align 8
  %4 = alloca ptr, align 8
  store ptr %0, ptr %3, align 8, !tbaa !98
  store ptr %1, ptr %4, align 8, !tbaa !12
  %5 = load ptr, ptr %3, align 8
  %6 = getelementptr inbounds nuw %"class.google::protobuf::stringpiece_internal::StringPiece", ptr %5, i32 0, i32 0
  %7 = load ptr, ptr %4, align 8, !tbaa !12
  %8 = call noundef ptr @_ZNKSt7__cxx1112basic_stringIcSt11char_traitsIcESaIcEE4dataEv(ptr noundef nonnull align 8 dereferenceable(32) %7) #3
  store ptr %8, ptr %6, align 8, !tbaa !100
  %9 = getelementptr inbounds nuw %"class.google::protobuf::stringpiece_internal::StringPiece", ptr %5, i32 0, i32 1
  store i64 0, ptr %9, align 8, !tbaa !102
  %10 = load ptr, ptr %4, align 8, !tbaa !12
  %11 = call noundef i64 @_ZNKSt7__cxx1112basic_stringIcSt11char_traitsIcESaIcEE4sizeEv(ptr noundef nonnull align 8 dereferenceable(32) %10) #3
  %12 = call noundef i64 @_ZN6google8protobuf20stringpiece_internal11StringPiece9CheckSizeEm(i64 noundef %11)
  %13 = getelementptr inbounds nuw %"class.google::protobuf::stringpiece_internal::StringPiece", ptr %5, i32 0, i32 1
  store i64 %12, ptr %13, align 8, !tbaa !102
  ret void
}

; Function Attrs: mustprogress nounwind uwtable
define linkonce_odr hidden noundef ptr @_ZNKSt10unique_ptrIN6google8protobuf25EncodedDescriptorDatabase15DescriptorIndexESt14default_deleteIS3_EEptEv(ptr noundef nonnull align 8 dereferenceable(8) %0) #4 comdat align 2 {
  %2 = alloca ptr, align 8
  store ptr %0, ptr %2, align 8, !tbaa !57
  %3 = load ptr, ptr %2, align 8
  %4 = call noundef ptr @_ZNKSt10unique_ptrIN6google8protobuf25EncodedDescriptorDatabase15DescriptorIndexESt14default_deleteIS3_EE3getEv(ptr noundef nonnull align 8 dereferenceable(8) %3) #3
  ret ptr %4
}

; Function Attrs: mustprogress uwtable
define hidden noundef zeroext i1 @_ZN6google8protobuf25EncodedDescriptorDatabase14FindFileByNameERKNSt7__cxx1112basic_stringIcSt11char_traitsIcESaIcEEEPNS0_19FileDescriptorProtoE(ptr noundef nonnull align 8 dereferenceable(40) %0, ptr noundef nonnull align 8 dereferenceable(32) %1, ptr noundef %2) unnamed_addr #6 align 2 {
  %4 = alloca ptr, align 8
  %5 = alloca ptr, align 8
  %6 = alloca ptr, align 8
  %7 = alloca %"struct.std::pair", align 8
  %8 = alloca %"class.google::protobuf::stringpiece_internal::StringPiece", align 8
  %9 = alloca { ptr, i32 }, align 8
  store ptr %0, ptr %4, align 8, !tbaa !54
  store ptr %1, ptr %5, align 8, !tbaa !12
  store ptr %2, ptr %6, align 8, !tbaa !24
  %10 = load ptr, ptr %4, align 8
  %11 = getelementptr inbounds nuw %"class.google::protobuf::EncodedDescriptorDatabase", ptr %10, i32 0, i32 1
  %12 = call noundef ptr @_ZNKSt10unique_ptrIN6google8protobuf25EncodedDescriptorDatabase15DescriptorIndexESt14default_deleteIS3_EEptEv(ptr noundef nonnull align 8 dereferenceable(8) %11) #3
  %13 = load ptr, ptr %5, align 8, !tbaa !12
  call void @_ZN6google8protobuf20stringpiece_internal11StringPieceC2ISaIcEEERKNSt7__cxx1112basic_stringIcSt11char_traitsIcET_EE(ptr noundef nonnull align 8 dereferenceable(16) %8, ptr noundef nonnull align 8 dereferenceable(32) %13)
  %14 = getelementptr inbounds nuw { ptr, i64 }, ptr %8, i32 0, i32 0
  %15 = load ptr, ptr %14, align 8
  %16 = getelementptr inbounds nuw { ptr, i64 }, ptr %8, i32 0, i32 1
  %17 = load i64, ptr %16, align 8
  %18 = call { ptr, i32 } @_ZN6google8protobuf25EncodedDescriptorDatabase15DescriptorIndex8FindFileENS0_20stringpiece_internal11StringPieceE(ptr noundef nonnull align 8 dereferenceable(240) %12, ptr %15, i64 %17)
  store { ptr, i32 } %18, ptr %9, align 8
  call void @llvm.memcpy.p0.p0.i64(ptr align 8 %7, ptr align 8 %9, i64 12, i1 false)
  %19 = load ptr, ptr %6, align 8, !tbaa !24
  %20 = getelementptr inbounds nuw { ptr, i32 }, ptr %7, i32 0, i32 0
  %21 = load ptr, ptr %20, align 8
  %22 = getelementptr inbounds nuw { ptr, i32 }, ptr %7, i32 0, i32 1
  %23 = load i32, ptr %22, align 8
  %24 = call noundef zeroext i1 @_ZN6google8protobuf25EncodedDescriptorDatabase10MaybeParseESt4pairIPKviEPNS0_19FileDescriptorProtoE(ptr noundef nonnull align 8 dereferenceable(40) %10, ptr %21, i32 %23, ptr noundef %19)
  ret i1 %24
}